; ModuleID = '24/2053.c'
source_filename = "24/2053.c"
target datalayout = "e-m:e-p270:32:32-p271:32:32-p272:64:64-i64:64-f80:128-n8:16:32:64-S128"
target triple = "x86_64-pc-linux-gnu"

@.str = private unnamed_addr constant [6 x i8] c"%s\0A%s\00", align 1

; Function Attrs: noinline nounwind uwtable
define dso_local i32 @main() #0 {
  %1 = alloca i32, align 4
  %2 = alloca [10000 x i8], align 16
  %3 = alloca [200 x [50 x i8]], align 16
  %4 = alloca [50 x i8], align 16
  %5 = alloca [50 x i8], align 16
  %6 = alloca i32, align 4
  %7 = alloca i32, align 4
  %8 = alloca i32, align 4
  %9 = alloca i32, align 4
  %10 = alloca i32, align 4
  %11 = alloca i32, align 4
  %12 = alloca i32, align 4
  %13 = alloca i32, align 4
  store i32 0, i32* %1, align 4
  store i32 0, i32* %9, align 4
  store i32 0, i32* %10, align 4
  %14 = getelementptr inbounds [10000 x i8], [10000 x i8]* %2, i64 0, i64 0
  %15 = call i32 (i8*, ...) bitcast (i32 (...)* @gets to i32 (i8*, ...)*)(i8* %14)
  %16 = getelementptr inbounds [10000 x i8], [10000 x i8]* %2, i64 0, i64 0
  %17 = call i64 @strlen(i8* %16) #4
  %18 = trunc i64 %17 to i32
  store i32 %18, i32* %8, align 4
  store i32 0, i32* %6, align 4
  br label %19

19:                                               ; preds = %53, %0
  %20 = load i32, i32* %6, align 4
  %21 = load i32, i32* %8, align 4
  %22 = icmp slt i32 %20, %21
  br i1 %22, label %23, label %56

23:                                               ; preds = %19
  %24 = load i32, i32* %6, align 4
  %25 = sext i32 %24 to i64
  %26 = getelementptr inbounds [10000 x i8], [10000 x i8]* %2, i64 0, i64 %25
  %27 = load i8, i8* %26, align 1
  %28 = sext i8 %27 to i32
  %29 = icmp ne i32 %28, 32
  br i1 %29, label %30, label %43

30:                                               ; preds = %23
  %31 = load i32, i32* %6, align 4
  %32 = sext i32 %31 to i64
  %33 = getelementptr inbounds [10000 x i8], [10000 x i8]* %2, i64 0, i64 %32
  %34 = load i8, i8* %33, align 1
  %35 = load i32, i32* %9, align 4
  %36 = sext i32 %35 to i64
  %37 = getelementptr inbounds [200 x [50 x i8]], [200 x [50 x i8]]* %3, i64 0, i64 %36
  %38 = load i32, i32* %10, align 4
  %39 = sext i32 %38 to i64
  %40 = getelementptr inbounds [50 x i8], [50 x i8]* %37, i64 0, i64 %39
  store i8 %34, i8* %40, align 1
  %41 = load i32, i32* %10, align 4
  %42 = add nsw i32 %41, 1
  store i32 %42, i32* %10, align 4
  br label %52

43:                                               ; preds = %23
  %44 = load i32, i32* %9, align 4
  %45 = sext i32 %44 to i64
  %46 = getelementptr inbounds [200 x [50 x i8]], [200 x [50 x i8]]* %3, i64 0, i64 %45
  %47 = load i32, i32* %10, align 4
  %48 = sext i32 %47 to i64
  %49 = getelementptr inbounds [50 x i8], [50 x i8]* %46, i64 0, i64 %48
  store i8 0, i8* %49, align 1
  %50 = load i32, i32* %9, align 4
  %51 = add nsw i32 %50, 1
  store i32 %51, i32* %9, align 4
  store i32 0, i32* %10, align 4
  br label %52

52:                                               ; preds = %43, %30
  br label %53

53:                                               ; preds = %52
  %54 = load i32, i32* %6, align 4
  %55 = add nsw i32 %54, 1
  store i32 %55, i32* %6, align 4
  br label %19

56:                                               ; preds = %19
  %57 = load i32, i32* %9, align 4
  %58 = sext i32 %57 to i64
  %59 = getelementptr inbounds [200 x [50 x i8]], [200 x [50 x i8]]* %3, i64 0, i64 %58
  %60 = load i32, i32* %10, align 4
  %61 = sext i32 %60 to i64
  %62 = getelementptr inbounds [50 x i8], [50 x i8]* %59, i64 0, i64 %61
  store i8 0, i8* %62, align 1
  %63 = getelementptr inbounds [200 x [50 x i8]], [200 x [50 x i8]]* %3, i64 0, i64 0
  %64 = getelementptr inbounds [50 x i8], [50 x i8]* %63, i64 0, i64 0
  %65 = call i64 @strlen(i8* %64) #4
  %66 = trunc i64 %65 to i32
  store i32 %66, i32* %11, align 4
  %67 = load i32, i32* %11, align 4
  store i32 %67, i32* %12, align 4
  %68 = getelementptr inbounds [50 x i8], [50 x i8]* %4, i64 0, i64 0
  %69 = getelementptr inbounds [200 x [50 x i8]], [200 x [50 x i8]]* %3, i64 0, i64 0
  %70 = getelementptr inbounds [50 x i8], [50 x i8]* %69, i64 0, i64 0
  %71 = call i8* @strcpy(i8* %68, i8* %70) #5
  %72 = getelementptr inbounds [50 x i8], [50 x i8]* %5, i64 0, i64 0
  %73 = getelementptr inbounds [200 x [50 x i8]], [200 x [50 x i8]]* %3, i64 0, i64 0
  %74 = getelementptr inbounds [50 x i8], [50 x i8]* %73, i64 0, i64 0
  %75 = call i8* @strcpy(i8* %72, i8* %74) #5
  store i32 1, i32* %7, align 4
  br label %76

76:                                               ; preds = %121, %56
  %77 = load i32, i32* %7, align 4
  %78 = load i32, i32* %9, align 4
  %79 = icmp sle i32 %77, %78
  br i1 %79, label %80, label %124

80:                                               ; preds = %76
  %81 = load i32, i32* %7, align 4
  %82 = sext i32 %81 to i64
  %83 = getelementptr inbounds [200 x [50 x i8]], [200 x [50 x i8]]* %3, i64 0, i64 %82
  %84 = getelementptr inbounds [50 x i8], [50 x i8]* %83, i64 0, i64 0
  %85 = call i64 @strlen(i8* %84) #4
  %86 = trunc i64 %85 to i32
  store i32 %86, i32* %13, align 4
  %87 = load i32, i32* %11, align 4
  %88 = load i32, i32* %13, align 4
  %89 = icmp slt i32 %87, %88
  br i1 %89, label %90, label %103

90:                                               ; preds = %80
  %91 = load i32, i32* %7, align 4
  %92 = sext i32 %91 to i64
  %93 = getelementptr inbounds [200 x [50 x i8]], [200 x [50 x i8]]* %3, i64 0, i64 %92
  %94 = getelementptr inbounds [50 x i8], [50 x i8]* %93, i64 0, i64 0
  %95 = call i64 @strlen(i8* %94) #4
  %96 = trunc i64 %95 to i32
  store i32 %96, i32* %11, align 4
  %97 = getelementptr inbounds [50 x i8], [50 x i8]* %4, i64 0, i64 0
  %98 = load i32, i32* %7, align 4
  %99 = sext i32 %98 to i64
  %100 = getelementptr inbounds [200 x [50 x i8]], [200 x [50 x i8]]* %3, i64 0, i64 %99
  %101 = getelementptr inbounds [50 x i8], [50 x i8]* %100, i64 0, i64 0
  %102 = call i8* @strcpy(i8* %97, i8* %101) #5
  br label %103

103:                                              ; preds = %90, %80
  %104 = load i32, i32* %12, align 4
  %105 = load i32, i32* %13, align 4
  %106 = icmp sgt i32 %104, %105
  br i1 %106, label %107, label %120

107:                                              ; preds = %103
  %108 = load i32, i32* %7, align 4
  %109 = sext i32 %108 to i64
  %110 = getelementptr inbounds [200 x [50 x i8]], [200 x [50 x i8]]* %3, i64 0, i64 %109
  %111 = getelementptr inbounds [50 x i8], [50 x i8]* %110, i64 0, i64 0
  %112 = call i64 @strlen(i8* %111) #4
  %113 = trunc i64 %112 to i32
  store i32 %113, i32* %12, align 4
  %114 = getelementptr inbounds [50 x i8], [50 x i8]* %5, i64 0, i64 0
  %115 = load i32, i32* %7, align 4
  %116 = sext i32 %115 to i64
  %117 = getelementptr inbounds [200 x [50 x i8]], [200 x [50 x i8]]* %3, i64 0, i64 %116
  %118 = getelementptr inbounds [50 x i8], [50 x i8]* %117, i64 0, i64 0
  %119 = call i8* @strcpy(i8* %114, i8* %118) #5
  br label %120

120:                                              ; preds = %107, %103
  br label %121

121:                                              ; preds = %120
  %122 = load i32, i32* %7, align 4
  %123 = add nsw i32 %122, 1
  store i32 %123, i32* %7, align 4
  br label %76

124:                                              ; preds = %76
  %125 = getelementptr inbounds [50 x i8], [50 x i8]* %4, i64 0, i64 0
  %126 = getelementptr inbounds [50 x i8], [50 x i8]* %5, i64 0, i64 0
  %127 = call i32 (i8*, ...) @printf(i8* getelementptr inbounds ([6 x i8], [6 x i8]* @.str, i64 0, i64 0), i8* %125, i8* %126)
  ret i32 0
}

declare dso_local i32 @gets(...) #1

; Function Attrs: nounwind readonly
declare dso_local i64 @strlen(i8*) #2

; Function Attrs: nounwind
declare dso_local i8* @strcpy(i8*, i8*) #3

declare dso_local i32 @printf(i8*, ...) #1


!llvm.module.flags = !{!0}
!llvm.ident = !{!1}

!0 = !{i32 1, !"wchar_size", i32 4}
!1 = !{!"clang version 10.0.0-4ubuntu1 "}
